---
triple:          'arm64-apple-darwin'
binary-path:     main
relocations:
  - { offset: 0x97D8, size: 0x8, addend: 0x0, symName: __ZStL8__ioinit, symObjAddr: 0x2C90E, symBinAddr: 0x10000C000, symSize: 0x0 }
  - { offset: 0x9AB2, size: 0x8, addend: 0x0, symName: __GLOBAL__sub_I_B.cpp, symObjAddr: 0x2674, symBinAddr: 0x100002AC8, symSize: 0x14 }
  - { offset: 0x9AC9, size: 0x8, addend: 0x0, symName: __Z41__static_initialization_and_destruction_0v, symObjAddr: 0x2638, symBinAddr: 0x100002A8C, symSize: 0x3C }
  - { offset: 0x9AE6, size: 0x8, addend: 0x0, symName: __ZSt9__advanceIPdlEvRT_T0_St26random_access_iterator_tag, symObjAddr: 0x2314, symBinAddr: 0x100002A54, symSize: 0x38 }
  - { offset: 0x9C14, size: 0x8, addend: 0x0, symName: __ZNK9__gnu_cxx5__ops14_Iter_less_valclINS_17__normal_iteratorIPdSt6vectorIdSaIdEEEEdEEbT_RT0_, symObjAddr: 0x22E0, symBinAddr: 0x100002A20, symSize: 0x34 }
  - { offset: 0x9C86, size: 0x8, addend: 0x0, symName: __ZSt9__fill_a1IPddEvT_S1_RKT0_, symObjAddr: 0x2280, symBinAddr: 0x1000029C0, symSize: 0x60 }
  - { offset: 0x9D2A, size: 0x8, addend: 0x0, symName: __ZSt23__copy_move_backward_a2ILb1EPdS0_ET1_T0_S2_S1_, symObjAddr: 0x218C, symBinAddr: 0x1000028CC, symSize: 0xF4 }
  - { offset: 0x9ECA, size: 0x8, addend: 0x0, symName: __ZSt11__push_heapIN9__gnu_cxx17__normal_iteratorIPdSt6vectorIdSaIdEEEEldNS0_5__ops14_Iter_less_valEEvT_T0_SA_T1_RT2_, symObjAddr: 0x1FFC, symBinAddr: 0x10000273C, symSize: 0x190 }
  - { offset: 0xA16D, size: 0x8, addend: 0x0, symName: __ZSt12__niter_wrapIN9__gnu_cxx17__normal_iteratorIPdSt6vectorIdSaIdEEEES2_ET_S7_T0_, symObjAddr: 0x1F9C, symBinAddr: 0x1000026DC, symSize: 0x60 }
  - { offset: 0xA2D5, size: 0x8, addend: 0x0, symName: __ZSt4swapIdENSt9enable_ifIXsrSt6__and_IJSt6__not_ISt15__is_tuple_likeIT_EESt21is_move_constructibleIS4_ESt18is_move_assignableIS4_EEE5valueEvE4typeERS4_SE_, symObjAddr: 0x1F48, symBinAddr: 0x100002688, symSize: 0x54 }
  - { offset: 0xA384, size: 0x8, addend: 0x0, symName: __ZSt13__adjust_heapIN9__gnu_cxx17__normal_iteratorIPdSt6vectorIdSaIdEEEEldNS0_5__ops15_Iter_less_iterEEvT_T0_SA_T1_T2_, symObjAddr: 0x1CC8, symBinAddr: 0x100002408, symSize: 0x280 }
  - { offset: 0xA749, size: 0x8, addend: 0x0, symName: __ZNK9__gnu_cxx5__ops14_Val_less_iterclIdNS_17__normal_iteratorIPdSt6vectorIdSaIdEEEEEEbRT_T0_, symObjAddr: 0x1C94, symBinAddr: 0x1000023D4, symSize: 0x34 }
  - { offset: 0xA805, size: 0x8, addend: 0x0, symName: __ZSt12__miter_baseIN9__gnu_cxx17__normal_iteratorIPdSt6vectorIdSaIdEEEEET_S7_, symObjAddr: 0x1C80, symBinAddr: 0x1000023C0, symSize: 0x14 }
  - { offset: 0xA836, size: 0x8, addend: 0x0, symName: __ZSt9iter_swapIN9__gnu_cxx17__normal_iteratorIPdSt6vectorIdSaIdEEEES6_EvT_T0_, symObjAddr: 0x1C58, symBinAddr: 0x100002398, symSize: 0x28 }
  - { offset: 0xA8D0, size: 0x8, addend: 0x0, symName: __ZSt10__pop_heapIN9__gnu_cxx17__normal_iteratorIPdSt6vectorIdSaIdEEEENS0_5__ops15_Iter_less_iterEEvT_S9_S9_RT0_, symObjAddr: 0x1BBC, symBinAddr: 0x1000022FC, symSize: 0x9C }
  - { offset: 0xAAC3, size: 0x8, addend: 0x0, symName: __ZSt11__make_heapIN9__gnu_cxx17__normal_iteratorIPdSt6vectorIdSaIdEEEENS0_5__ops15_Iter_less_iterEEvT_S9_RT0_, symObjAddr: 0x1A88, symBinAddr: 0x1000021C8, symSize: 0x134 }
  - { offset: 0xAD3B, size: 0x8, addend: 0x0, symName: __ZSt10_ConstructIdJEEvPT_DpOT0_, symObjAddr: 0x1A3C, symBinAddr: 0x10000217C, symSize: 0x4C }
  - { offset: 0xAD99, size: 0x8, addend: 0x0, symName: __ZNSt15__new_allocatorIdE8allocateEmPKv, symObjAddr: 0x19C4, symBinAddr: 0x100002104, symSize: 0x78 }
  - { offset: 0xAE0B, size: 0x8, addend: 0x0, symName: __ZSt25__unguarded_linear_insertIN9__gnu_cxx17__normal_iteratorIPdSt6vectorIdSaIdEEEENS0_5__ops14_Val_less_iterEEvT_T0_, symObjAddr: 0x1920, symBinAddr: 0x100002060, symSize: 0xA4 }
  - { offset: 0xB003, size: 0x8, addend: 0x0, symName: __ZNK9__gnu_cxx5__ops15_Iter_less_iterclINS_17__normal_iteratorIPdSt6vectorIdSaIdEEEES8_EEbT_T0_, symObjAddr: 0x18EC, symBinAddr: 0x10000202C, symSize: 0x34 }
  - { offset: 0xB0A9, size: 0x8, addend: 0x0, symName: __ZSt21__unguarded_partitionIN9__gnu_cxx17__normal_iteratorIPdSt6vectorIdSaIdEEEENS0_5__ops15_Iter_less_iterEET_S9_S9_S9_T0_, symObjAddr: 0x17F8, symBinAddr: 0x100001F38, symSize: 0xF4 }
  - { offset: 0xB1F7, size: 0x8, addend: 0x0, symName: __ZSt22__move_median_to_firstIN9__gnu_cxx17__normal_iteratorIPdSt6vectorIdSaIdEEEENS0_5__ops15_Iter_less_iterEEvT_S9_S9_S9_T0_, symObjAddr: 0x16E8, symBinAddr: 0x100001E28, symSize: 0x110 }
  - { offset: 0xB26C, size: 0x8, addend: 0x0, symName: __ZSt11__sort_heapIN9__gnu_cxx17__normal_iteratorIPdSt6vectorIdSaIdEEEENS0_5__ops15_Iter_less_iterEEvT_S9_RT0_, symObjAddr: 0x165C, symBinAddr: 0x100001D9C, symSize: 0x8C }
  - { offset: 0xB34D, size: 0x8, addend: 0x0, symName: __ZSt13__heap_selectIN9__gnu_cxx17__normal_iteratorIPdSt6vectorIdSaIdEEEENS0_5__ops15_Iter_less_iterEEvT_S9_S9_T0_, symObjAddr: 0x1598, symBinAddr: 0x100001CD8, symSize: 0xC4 }
  - { offset: 0xB460, size: 0x8, addend: 0x0, symName: __ZNSt27__uninitialized_default_n_1ILb1EE18__uninit_default_nIPdmEET_S3_T0_, symObjAddr: 0x14A4, symBinAddr: 0x100001BE4, symSize: 0xF4 }
  - { offset: 0xB5BB, size: 0x8, addend: 0x0, symName: __ZNSt15__new_allocatorIdE10deallocateEPdm, symObjAddr: 0x147C, symBinAddr: 0x100001BBC, symSize: 0x28 }
  - { offset: 0xB66D, size: 0x8, addend: 0x0, symName: __ZSt26__unguarded_insertion_sortIN9__gnu_cxx17__normal_iteratorIPdSt6vectorIdSaIdEEEENS0_5__ops15_Iter_less_iterEEvT_S9_T0_, symObjAddr: 0x13E8, symBinAddr: 0x100001B28, symSize: 0x94 }
  - { offset: 0xB770, size: 0x8, addend: 0x0, symName: __ZSt16__insertion_sortIN9__gnu_cxx17__normal_iteratorIPdSt6vectorIdSaIdEEEENS0_5__ops15_Iter_less_iterEEvT_S9_T0_, symObjAddr: 0x11DC, symBinAddr: 0x10000191C, symSize: 0x20C }
  - { offset: 0xBBD1, size: 0x8, addend: 0x0, symName: __ZSt27__unguarded_partition_pivotIN9__gnu_cxx17__normal_iteratorIPdSt6vectorIdSaIdEEEENS0_5__ops15_Iter_less_iterEET_S9_S9_T0_, symObjAddr: 0x10A4, symBinAddr: 0x1000017E4, symSize: 0x138 }
  - { offset: 0xBDD3, size: 0x8, addend: 0x0, symName: __ZSt14__partial_sortIN9__gnu_cxx17__normal_iteratorIPdSt6vectorIdSaIdEEEENS0_5__ops15_Iter_less_iterEEvT_S9_S9_T0_, symObjAddr: 0x1058, symBinAddr: 0x100001798, symSize: 0x4C }
  - { offset: 0xBE3D, size: 0x8, addend: 0x0, symName: __ZSt25__uninitialized_default_nIPdmET_S1_T0_, symObjAddr: 0x102C, symBinAddr: 0x10000176C, symSize: 0x2C }
  - { offset: 0xBECA, size: 0x8, addend: 0x0, symName: __ZNSt12_Vector_baseIdSaIdEE11_M_allocateEm, symObjAddr: 0xFDC, symBinAddr: 0x10000171C, symSize: 0x50 }
  - { offset: 0xBF47, size: 0x8, addend: 0x0, symName: __ZNSt12_Vector_baseIdSaIdEE17_Vector_impl_dataC2Ev, symObjAddr: 0xFB0, symBinAddr: 0x1000016F0, symSize: 0x2C }
  - { offset: 0xBF9A, size: 0x8, addend: 0x0, symName: __ZNK9__gnu_cxx5__ops15_Iter_less_iterclIPKdS4_EEbT_T0_, symObjAddr: 0xF7C, symBinAddr: 0x1000016BC, symSize: 0x34 }
  - { offset: 0xBFF2, size: 0x8, addend: 0x0, symName: __ZNKSt16initializer_listIdE4sizeEv, symObjAddr: 0xF64, symBinAddr: 0x1000016A4, symSize: 0x18 }
  - { offset: 0xC053, size: 0x8, addend: 0x0, symName: __ZNKSt6vectorIdSaIdEE3endEv, symObjAddr: 0xF34, symBinAddr: 0x100001674, symSize: 0x30 }
  - { offset: 0xC0A2, size: 0x8, addend: 0x0, symName: __ZNKSt6vectorIdSaIdEE5beginEv, symObjAddr: 0xF08, symBinAddr: 0x100001648, symSize: 0x2C }
  - { offset: 0xC0ED, size: 0x8, addend: 0x0, symName: __ZSt22__final_insertion_sortIN9__gnu_cxx17__normal_iteratorIPdSt6vectorIdSaIdEEEENS0_5__ops15_Iter_less_iterEEvT_S9_T0_, symObjAddr: 0xE18, symBinAddr: 0x100001558, symSize: 0xF0 }
  - { offset: 0xC248, size: 0x8, addend: 0x0, symName: __ZSt16__introsort_loopIN9__gnu_cxx17__normal_iteratorIPdSt6vectorIdSaIdEEEElNS0_5__ops15_Iter_less_iterEEvT_S9_T0_T1_, symObjAddr: 0xD44, symBinAddr: 0x100001484, symSize: 0xD4 }
  - { offset: 0xC345, size: 0x8, addend: 0x0, symName: __ZSt4__lgIlET_S0_, symObjAddr: 0xD20, symBinAddr: 0x100001460, symSize: 0x24 }
  - { offset: 0xC376, size: 0x8, addend: 0x0, symName: __ZSt8_DestroyIPdEvT_S1_, symObjAddr: 0xD08, symBinAddr: 0x100001448, symSize: 0x18 }
  - { offset: 0xC3B5, size: 0x8, addend: 0x0, symName: __ZSt27__uninitialized_default_n_aIPdmdET_S1_T0_RSaIT1_E, symObjAddr: 0xCE0, symBinAddr: 0x100001420, symSize: 0x28 }
  - { offset: 0xC414, size: 0x8, addend: 0x0, symName: __ZNSt12_Vector_baseIdSaIdEE13_M_deallocateEPdm, symObjAddr: 0xC88, symBinAddr: 0x1000013C8, symSize: 0x58 }
  - { offset: 0xC48E, size: 0x8, addend: 0x0, symName: __ZNSt12_Vector_baseIdSaIdEE17_M_create_storageEm, symObjAddr: 0xC28, symBinAddr: 0x100001368, symSize: 0x60 }
  - { offset: 0xC4ED, size: 0x8, addend: 0x0, symName: __ZNSt12_Vector_baseIdSaIdEE12_Vector_implC1ERKS0_, symObjAddr: 0xBDC, symBinAddr: 0x10000131C, symSize: 0x4C }
  - { offset: 0xC589, size: 0x8, addend: 0x0, symName: __ZNSt6vectorIdSaIdEE11_S_max_sizeERKS0_, symObjAddr: 0xB88, symBinAddr: 0x1000012C8, symSize: 0x54 }
  - { offset: 0xC636, size: 0x8, addend: 0x0, symName: __ZSt13__max_elementIPKdN9__gnu_cxx5__ops15_Iter_less_iterEET_S5_S5_T0_, symObjAddr: 0xAF4, symBinAddr: 0x100001234, symSize: 0x94 }
  - { offset: 0xC6A4, size: 0x8, addend: 0x0, symName: __ZNKSt16initializer_listIdE3endEv, symObjAddr: 0xABC, symBinAddr: 0x1000011FC, symSize: 0x38 }
  - { offset: 0xC6CC, size: 0x8, addend: 0x0, symName: __ZNKSt16initializer_listIdE5beginEv, symObjAddr: 0xAA4, symBinAddr: 0x1000011E4, symSize: 0x18 }
  - { offset: 0xC72D, size: 0x8, addend: 0x0, symName: __ZNKSt6vectorIdSaIdEE5emptyEv, symObjAddr: 0xA4C, symBinAddr: 0x10000118C, symSize: 0x58 }
  - { offset: 0xC7B9, size: 0x8, addend: 0x0, symName: __ZSt6__sortIN9__gnu_cxx17__normal_iteratorIPdSt6vectorIdSaIdEEEENS0_5__ops15_Iter_less_iterEEvT_S9_T0_, symObjAddr: 0x998, symBinAddr: 0x1000010D8, symSize: 0xB4 }
  - { offset: 0xC986, size: 0x8, addend: 0x0, symName: __ZNKSt6vectorIdSaIdEE4sizeEv, symObjAddr: 0x958, symBinAddr: 0x100001098, symSize: 0x40 }
  - { offset: 0xC9F6, size: 0x8, addend: 0x0, symName: __ZNSt12_Vector_baseIdSaIdEE19_M_get_Tp_allocatorEv, symObjAddr: 0x944, symBinAddr: 0x100001084, symSize: 0x14 }
  - { offset: 0xCA1E, size: 0x8, addend: 0x0, symName: __ZNSt6vectorIdSaIdEE21_M_default_initializeEm, symObjAddr: 0x8F4, symBinAddr: 0x100001034, symSize: 0x50 }
  - { offset: 0xCA71, size: 0x8, addend: 0x0, symName: __ZNSt12_Vector_baseIdSaIdEED2Ev, symObjAddr: 0x8A4, symBinAddr: 0x100000FE4, symSize: 0x50 }
  - { offset: 0xCACA, size: 0x8, addend: 0x0, symName: __ZNSt12_Vector_baseIdSaIdEEC2EmRKS0_, symObjAddr: 0x850, symBinAddr: 0x100000F90, symSize: 0x54 }
  - { offset: 0xCB1C, size: 0x8, addend: 0x0, symName: __ZNSt12_Vector_baseIdSaIdEE12_Vector_implD1Ev, symObjAddr: 0x824, symBinAddr: 0x100000F64, symSize: 0x2C }
  - { offset: 0xCB5D, size: 0x8, addend: 0x0, symName: __ZNSt6vectorIdSaIdEE17_S_check_init_lenEmRKS0_, symObjAddr: 0x7A0, symBinAddr: 0x100000EE0, symSize: 0x84 }
  - { offset: 0xCC23, size: 0x8, addend: 0x0, symName: __ZNSt15__new_allocatorIdED2Ev, symObjAddr: 0x78C, symBinAddr: 0x100000ECC, symSize: 0x14 }
  - { offset: 0xCC59, size: 0x8, addend: 0x0, symName: __ZSt3maxIdET_St16initializer_listIS0_E, symObjAddr: 0x734, symBinAddr: 0x100000E74, symSize: 0x58 }
  - { offset: 0xCC8E, size: 0x8, addend: 0x0, symName: __ZNSt6vectorIdSaIdEE4backEv, symObjAddr: 0x698, symBinAddr: 0x100000DD8, symSize: 0x9C }
  - { offset: 0xCD37, size: 0x8, addend: 0x0, symName: __ZSt3maxIdERKT_S2_S2_, symObjAddr: 0x65C, symBinAddr: 0x100000D9C, symSize: 0x3C }
  - { offset: 0xCD78, size: 0x8, addend: 0x0, symName: __ZSt4sortIN9__gnu_cxx17__normal_iteratorIPdSt6vectorIdSaIdEEEEEvT_S7_, symObjAddr: 0x624, symBinAddr: 0x100000D64, symSize: 0x38 }
  - { offset: 0xCDBD, size: 0x8, addend: 0x0, symName: __ZNSt6vectorIdSaIdEE3endEv, symObjAddr: 0x5F4, symBinAddr: 0x100000D34, symSize: 0x30 }
  - { offset: 0xCE0C, size: 0x8, addend: 0x0, symName: __ZNSt6vectorIdSaIdEE5beginEv, symObjAddr: 0x5C8, symBinAddr: 0x100000D08, symSize: 0x2C }
  - { offset: 0xCE5B, size: 0x8, addend: 0x0, symName: __ZNSt6vectorIdSaIdEEixEm, symObjAddr: 0x544, symBinAddr: 0x100000C84, symSize: 0x84 }
  - { offset: 0xCEC9, size: 0x8, addend: 0x0, symName: __ZNSt6vectorIdSaIdEED1Ev, symObjAddr: 0x4E8, symBinAddr: 0x100000C28, symSize: 0x5C }
  - { offset: 0xCF54, size: 0x8, addend: 0x0, symName: __ZNSt6vectorIdSaIdEEC1EmRKS0_, symObjAddr: 0x480, symBinAddr: 0x100000BC0, symSize: 0x68 }
  - { offset: 0xCFB0, size: 0x8, addend: 0x0, symName: __ZSt3minImERKT_S2_S2_, symObjAddr: 0x448, symBinAddr: 0x100000B88, symSize: 0x38 }
  - { offset: 0xCFF7, size: 0x8, addend: 0x0, symName: _main, symObjAddr: 0x1F0, symBinAddr: 0x100000930, symSize: 0x258 }
  - { offset: 0xD110, size: 0x8, addend: 0x0, symName: __ZSt12setprecisioni, symObjAddr: 0x1DC, symBinAddr: 0x10000091C, symSize: 0x14 }
  - { offset: 0xD137, size: 0x8, addend: 0x0, symName: __ZSt5fixedRSt8ios_base, symObjAddr: 0x1B4, symBinAddr: 0x1000008F4, symSize: 0x28 }
  - { offset: 0xD16E, size: 0x8, addend: 0x0, symName: __ZNSt8ios_base4setfESt13_Ios_FmtflagsS0_, symObjAddr: 0x144, symBinAddr: 0x100000884, symSize: 0x70 }
  - { offset: 0xD1CE, size: 0x8, addend: 0x0, symName: __ZStaNRSt13_Ios_FmtflagsS_, symObjAddr: 0x10C, symBinAddr: 0x10000084C, symSize: 0x38 }
  - { offset: 0xD204, size: 0x8, addend: 0x0, symName: __ZStoRRSt13_Ios_FmtflagsS_, symObjAddr: 0xD4, symBinAddr: 0x100000814, symSize: 0x38 }
  - { offset: 0xD23A, size: 0x8, addend: 0x0, symName: __ZStcoSt13_Ios_Fmtflags, symObjAddr: 0xBC, symBinAddr: 0x1000007FC, symSize: 0x18 }
  - { offset: 0xD261, size: 0x8, addend: 0x0, symName: __ZStorSt13_Ios_FmtflagsS_, symObjAddr: 0x9C, symBinAddr: 0x1000007DC, symSize: 0x20 }
  - { offset: 0xD297, size: 0x8, addend: 0x0, symName: __ZStanSt13_Ios_FmtflagsS_, symObjAddr: 0x7C, symBinAddr: 0x1000007BC, symSize: 0x20 }
  - { offset: 0xD2D5, size: 0x8, addend: 0x0, symName: __ZdlPvS_, symObjAddr: 0x64, symBinAddr: 0x1000007A4, symSize: 0x18 }
  - { offset: 0xD309, size: 0x8, addend: 0x0, symName: __ZnwmPv, symObjAddr: 0x4C, symBinAddr: 0x10000078C, symSize: 0x18 }
  - { offset: 0xD338, size: 0x8, addend: 0x0, symName: __ZSt17__size_to_integerm, symObjAddr: 0x38, symBinAddr: 0x100000778, symSize: 0x14 }
  - { offset: 0xD360, size: 0x8, addend: 0x0, symName: __ZN9__gnu_cxx5__ops15__val_comp_iterENS0_15_Iter_less_iterE, symObjAddr: 0x20, symBinAddr: 0x100000760, symSize: 0x18 }
  - { offset: 0xD3A4, size: 0x8, addend: 0x0, symName: __ZN9__gnu_cxx5__ops14_Iter_less_valC1ENS0_15_Iter_less_iterE, symObjAddr: 0x8, symBinAddr: 0x100000748, symSize: 0x18 }
  - { offset: 0xD3CD, size: 0x8, addend: 0x0, symName: __ZN9__gnu_cxx5__ops16__iter_less_iterEv, symObjAddr: 0x0, symBinAddr: 0x100000740, symSize: 0x8 }
...
